target datalayout = "e-m:e-p270:32:32-p271:32:32-p272:64:64-i64:64-i128:128-f80:128-n8:16:32:64-S128"
target triple = "x86_64-pc-linux-gnu"

%struct.provider_ctx_data_st = type { ptr, ptr }

@.str.31 = private unnamed_addr constant [11 x i8] c"TLS-SIGALG\00", align 1

; Function Attrs: nounwind uwtable
define internal i32 @discover_provider_sigalgs(ptr noundef %0, ptr noundef %1) #1 {
  %3 = alloca ptr, align 8
  %4 = alloca ptr, align 8
  %5 = alloca %struct.provider_ctx_data_st, align 8
  store ptr %0, ptr %3, align 8, !tbaa !110
  store ptr %1, ptr %4, align 8, !tbaa !112
  call void @llvm.lifetime.start.p0(i64 16, ptr %5) #8
  %6 = load ptr, ptr %4, align 8, !tbaa !112
  %7 = getelementptr inbounds nuw %struct.provider_ctx_data_st, ptr %5, i32 0, i32 0
  store ptr %6, ptr %7, align 8, !tbaa !113
  %8 = load ptr, ptr %3, align 8, !tbaa !110
  %9 = getelementptr inbounds nuw %struct.provider_ctx_data_st, ptr %5, i32 0, i32 1
  store ptr %8, ptr %9, align 8, !tbaa !115
  %10 = load ptr, ptr %3, align 8, !tbaa !110
  %11 = call i32 @OSSL_PROVIDER_get_capabilities(ptr noundef %10, ptr noundef @.str.31, ptr noundef @add_provider_sigalgs, ptr noundef %5)
  call void @llvm.lifetime.end.p0(i64 16, ptr %5) #8
  ret i32 1
}